; Function Attrs: mustprogress uwtable
define void @_ZN32pxrInternal_v0_24__pxrReserved__22Vt_DefaultValueFactoryINS_11GfDualQuathEE6InvokeEv(ptr dead_on_unwind noalias nocapture writable writeonly sret(%"struct.pxrInternal_v0_24__pxrReserved__::Vt_DefaultValueHolder") align 8 %0) local_unnamed_addr #0 align 2 personality ptr @__gxx_personality_v0 {
  %2 = tail call { i64, i64 } @_ZN32pxrInternal_v0_24__pxrReserved__6VtZeroINS_11GfDualQuathEEET_v()
  %3 = extractvalue { i64, i64 } %2, 0
  %4 = extractvalue { i64, i64 } %2, 1
  tail call void @llvm.experimental.noalias.scope.decl(metadata !201)
  %5 = tail call noalias noundef nonnull dereferenceable(16) ptr @_Znwm(i64 noundef 16) #23, !noalias !204
  store i64 %3, ptr %5, align 16, !noalias !204
  %.sroa.2.0..sroa_idx = getelementptr inbounds i8, ptr %5, i64 8
  store i64 %4, ptr %.sroa.2.0..sroa_idx, align 8, !noalias !204
  store ptr %5, ptr %0, align 8, !alias.scope !201
  %6 = getelementptr inbounds nuw i8, ptr %0, i64 8
  store ptr @_ZN32pxrInternal_v0_24__pxrReserved__14TfAnyUniquePtr7_DeleteINS_11GfDualQuathEEEvPKv, ptr %6, align 8, !alias.scope !201
  %7 = getelementptr inbounds nuw i8, ptr %0, i64 16
  store ptr @_ZTIN32pxrInternal_v0_24__pxrReserved__11GfDualQuathE, ptr %7, align 8, !alias.scope !201
  ret void
}